; Function Attrs: nounwind uwtable
define noundef i32 @cli_bcapi_jsnorm_done(ptr nocapture noundef %0, i32 noundef %1) local_unnamed_addr #1 {
  %3 = icmp slt i32 %1, 0
  br i1 %3, label %get_jsnorm.exit.thread, label %4

4:                                                ; preds = %2
  %5 = getelementptr inbounds i8, ptr %0, i64 1240
  %6 = load i32, ptr %5, align 8
  %.not.i = icmp ugt i32 %6, %1
  br i1 %.not.i, label %7, label %get_jsnorm.exit.thread

7:                                                ; preds = %4
  %8 = getelementptr inbounds i8, ptr %0, i64 1256
  %9 = load ptr, ptr %8, align 8
  %.not8.i = icmp eq ptr %9, null
  br i1 %.not8.i, label %get_jsnorm.exit.thread, label %get_jsnorm.exit

get_jsnorm.exit:                                  ; preds = %7
  %10 = zext nneg i32 %1 to i64
  %11 = getelementptr inbounds %struct.bc_jsnorm, ptr %9, i64 %10
  %12 = getelementptr inbounds i8, ptr %11, i64 8
  %13 = load i32, ptr %12, align 8
  %14 = icmp eq i32 %13, -1
  br i1 %14, label %get_jsnorm.exit.thread, label %15

15:                                               ; preds = %get_jsnorm.exit
  %16 = getelementptr inbounds i8, ptr %0, i64 1088
  %17 = load ptr, ptr %16, align 8
  %.not15 = icmp eq ptr %17, null
  br i1 %.not15, label %23, label %18

18:                                               ; preds = %15
  %19 = getelementptr inbounds i8, ptr %0, i64 1244
  %20 = load i32, ptr %19, align 4
  %21 = zext i32 %20 to i64
  %22 = tail call i32 @cli_updatelimits(ptr noundef nonnull %17, i64 noundef %21) #29
  %.not16 = icmp eq i32 %22, 0
  br i1 %.not16, label %23, label %get_jsnorm.exit.thread

23:                                               ; preds = %18, %15
  %24 = getelementptr inbounds i8, ptr %0, i64 1244
  store i32 0, ptr %24, align 4
  %25 = load ptr, ptr %11, align 8
  tail call void @cli_js_parse_done(ptr noundef %25) #29
  %26 = load ptr, ptr %11, align 8
  %27 = getelementptr inbounds i8, ptr %0, i64 1264
  %28 = load ptr, ptr %27, align 8
  tail call void @cli_js_output(ptr noundef %26, ptr noundef %28) #29
  %29 = load ptr, ptr %11, align 8
  tail call void @cli_js_destroy(ptr noundef %29) #29
  store i32 -1, ptr %12, align 8
  br label %get_jsnorm.exit.thread

get_jsnorm.exit.thread:                           ; preds = %2, %4, %7, %18, %get_jsnorm.exit, %23
  %.0 = phi i32 [ 0, %23 ], [ -1, %get_jsnorm.exit ], [ -1, %18 ], [ -1, %7 ], [ -1, %4 ], [ -1, %2 ]
  ret i32 %.0
}